; Function Attrs: mustprogress null_pointer_is_valid sspstrong uwtable
define void @_ZN18AudioRoutingFilter5closeEv(ptr noundef readonly align 8 captures(none) dereferenceable_or_null(36) %0) unnamed_addr #0 align 2 {
  %2 = getelementptr inbounds nuw i8, ptr %0, i64 16
  %3 = load ptr, ptr %2, align 8
  %4 = load ptr, ptr %3, align 8
  %5 = getelementptr inbounds nuw i8, ptr %4, i64 112
  %6 = load ptr, ptr %5, align 8
  tail call void %6(ptr noundef align 8 dereferenceable_or_null(16) %3)
  ret void
}